; Function Attrs: mustprogress uwtable
define hidden noundef i32 @_ZN19OpenColorIO_v2_4dev11GammaOpData17ConvertStyleBasicENS_13NegativeStyleENS_18TransformDirectionE(i32 noundef %negStyle, i32 noundef %dir) local_unnamed_addr #3 align 2 personality ptr @__gxx_personality_v0 {
entry:
  %ss = alloca %"class.std::__cxx11::basic_stringstream", align 8
  %ref.tmp = alloca %"class.std::__cxx11::basic_string", align 8
  %ref.tmp8 = alloca %"class.std::allocator", align 1
  %ref.tmp18 = alloca %"class.std::__cxx11::basic_string", align 8
  %cmp = icmp ne i32 %dir, 0
  switch i32 %negStyle, label %sw.epilog [
    i32 0, label %sw.bb
    i32 1, label %sw.bb1
    i32 2, label %sw.bb4
    i32 3, label %sw.bb7
  ]

sw.bb:                                            ; preds = %entry
  %cond = zext i1 %cmp to i32
  br label %return

sw.bb1:                                           ; preds = %entry
  %cond3 = select i1 %cmp, i32 3, i32 2
  br label %return

sw.bb4:                                           ; preds = %entry
  %cond6 = select i1 %cmp, i32 5, i32 4
  br label %return

sw.bb7:                                           ; preds = %entry
  %exception = tail call ptr @__cxa_allocate_exception(i64 16) #18
  invoke void @_ZN19OpenColorIO_v2_4dev9ExceptionC1EPKc(ptr noundef nonnull align 8 dereferenceable(16) %exception, ptr noundef nonnull @.str.4)
          to label %invoke.cont unwind label %lpad

invoke.cont:                                      ; preds = %sw.bb7
  tail call void @__cxa_throw(ptr nonnull %exception, ptr nonnull @_ZTIN19OpenColorIO_v2_4dev9ExceptionE, ptr nonnull @_ZN19OpenColorIO_v2_4dev9ExceptionD1Ev) #19
  unreachable

lpad:                                             ; preds = %sw.bb7
  %0 = landingpad { ptr, i32 }
          cleanup
  tail call void @__cxa_free_exception(ptr %exception) #18
  br label %eh.resume

sw.epilog:                                        ; preds = %entry
  call void @_ZNSaIcEC1Ev(ptr noundef nonnull align 1 dereferenceable(1) %ref.tmp8) #18
  invoke void @_ZNSt7__cxx1112basic_stringIcSt11char_traitsIcESaIcEEC1EPKcRKS3_(ptr noundef nonnull align 8 dereferenceable(32) %ref.tmp, ptr noundef nonnull @.str.5, ptr noundef nonnull align 1 dereferenceable(1) %ref.tmp8)
          to label %invoke.cont10 unwind label %lpad9

invoke.cont10:                                    ; preds = %sw.epilog
  invoke void @_ZNSt7__cxx1118basic_stringstreamIcSt11char_traitsIcESaIcEEC1ERKNS_12basic_stringIcS2_S3_EESt13_Ios_Openmode(ptr noundef nonnull align 8 dereferenceable(128) %ss, ptr noundef nonnull align 8 dereferenceable(32) %ref.tmp, i32 noundef 24)
          to label %invoke.cont13 unwind label %lpad11

invoke.cont13:                                    ; preds = %invoke.cont10
  call void @_ZNSt7__cxx1112basic_stringIcSt11char_traitsIcESaIcEED1Ev(ptr noundef nonnull align 8 dereferenceable(32) %ref.tmp) #18
  call void @_ZNSaIcED1Ev(ptr noundef nonnull align 1 dereferenceable(1) %ref.tmp8) #18
  %add.ptr = getelementptr inbounds i8, ptr %ss, i64 16
  %call16 = invoke noundef nonnull align 8 dereferenceable(8) ptr @_ZNSolsEi(ptr noundef nonnull align 8 dereferenceable(8) %add.ptr, i32 noundef %negStyle)
          to label %invoke.cont15 unwind label %lpad14

invoke.cont15:                                    ; preds = %invoke.cont13
  %exception17 = call ptr @__cxa_allocate_exception(i64 16) #18
  invoke void @_ZNKSt7__cxx1118basic_stringstreamIcSt11char_traitsIcESaIcEE3strEv(ptr nonnull sret(%"class.std::__cxx11::basic_string") align 8 %ref.tmp18, ptr noundef nonnull align 8 dereferenceable(128) %ss)
          to label %invoke.cont20 unwind label %ehcleanup25.thread

invoke.cont20:                                    ; preds = %invoke.cont15
  %call21 = call noundef ptr @_ZNKSt7__cxx1112basic_stringIcSt11char_traitsIcESaIcEE5c_strEv(ptr noundef nonnull align 8 dereferenceable(32) %ref.tmp18) #18
  invoke void @_ZN19OpenColorIO_v2_4dev9ExceptionC1EPKc(ptr noundef nonnull align 8 dereferenceable(16) %exception17, ptr noundef %call21)
          to label %invoke.cont23 unwind label %ehcleanup25.thread12

ehcleanup25.thread12:                             ; preds = %invoke.cont20
  %1 = landingpad { ptr, i32 }
          cleanup
  call void @_ZNSt7__cxx1112basic_stringIcSt11char_traitsIcESaIcEED1Ev(ptr noundef nonnull align 8 dereferenceable(32) %ref.tmp18) #18
  br label %cleanup.action

invoke.cont23:                                    ; preds = %invoke.cont20
  invoke void @__cxa_throw(ptr nonnull %exception17, ptr nonnull @_ZTIN19OpenColorIO_v2_4dev9ExceptionE, ptr nonnull @_ZN19OpenColorIO_v2_4dev9ExceptionD1Ev) #19
          to label %unreachable unwind label %ehcleanup25

lpad9:                                            ; preds = %sw.epilog
  %2 = landingpad { ptr, i32 }
          cleanup
  br label %ehcleanup

lpad11:                                           ; preds = %invoke.cont10
  %3 = landingpad { ptr, i32 }
          cleanup
  call void @_ZNSt7__cxx1112basic_stringIcSt11char_traitsIcESaIcEED1Ev(ptr noundef nonnull align 8 dereferenceable(32) %ref.tmp) #18
  br label %ehcleanup

ehcleanup:                                        ; preds = %lpad11, %lpad9
  %.pn = phi { ptr, i32 } [ %3, %lpad11 ], [ %2, %lpad9 ]
  call void @_ZNSaIcED1Ev(ptr noundef nonnull align 1 dereferenceable(1) %ref.tmp8) #18
  br label %eh.resume

lpad14:                                           ; preds = %invoke.cont13
  %4 = landingpad { ptr, i32 }
          cleanup
  br label %ehcleanup26

ehcleanup25.thread:                               ; preds = %invoke.cont15
  %5 = landingpad { ptr, i32 }
          cleanup
  br label %cleanup.action

ehcleanup25:                                      ; preds = %invoke.cont23
  %6 = landingpad { ptr, i32 }
          cleanup
  call void @_ZNSt7__cxx1112basic_stringIcSt11char_traitsIcESaIcEED1Ev(ptr noundef nonnull align 8 dereferenceable(32) %ref.tmp18) #18
  br label %ehcleanup26

cleanup.action:                                   ; preds = %ehcleanup25.thread12, %ehcleanup25.thread
  %.pn511 = phi { ptr, i32 } [ %5, %ehcleanup25.thread ], [ %1, %ehcleanup25.thread12 ]
  call void @__cxa_free_exception(ptr %exception17) #18
  br label %ehcleanup26

ehcleanup26:                                      ; preds = %ehcleanup25, %cleanup.action, %lpad14
  %.pn5.pn = phi { ptr, i32 } [ %.pn511, %cleanup.action ], [ %6, %ehcleanup25 ], [ %4, %lpad14 ]
  call void @_ZNSt7__cxx1118basic_stringstreamIcSt11char_traitsIcESaIcEED1Ev(ptr noundef nonnull align 8 dereferenceable(128) %ss) #18
  br label %eh.resume

return:                                           ; preds = %sw.bb4, %sw.bb1, %sw.bb
  %retval.0 = phi i32 [ %cond6, %sw.bb4 ], [ %cond3, %sw.bb1 ], [ %cond, %sw.bb ]
  ret i32 %retval.0

eh.resume:                                        ; preds = %ehcleanup26, %ehcleanup, %lpad
  %.pn5.pn.pn = phi { ptr, i32 } [ %.pn5.pn, %ehcleanup26 ], [ %.pn, %ehcleanup ], [ %0, %lpad ]
  resume { ptr, i32 } %.pn5.pn.pn

unreachable:                                      ; preds = %invoke.cont23
  unreachable
}